; Function Attrs: mustprogress nounwind uwtable
define internal fastcc noundef ptr @_ZL16getValueOrPoisonRN4llvm6WeakVHERNS_11LLVMContextE(i64 %.0.val, ptr %.16.val, ptr noundef nonnull align 8 dereferenceable(8) %0) unnamed_addr #0 {
  %2 = alloca %"class.llvm::WeakVH", align 8
  %.not = icmp eq ptr %.16.val, null
  br i1 %.not, label %9, label %3

3:                                                ; preds = %1
  store i64 4, ptr %2, align 8
  %4 = getelementptr inbounds nuw i8, ptr %2, i64 8
  store ptr null, ptr %4, align 8
  %5 = getelementptr inbounds nuw i8, ptr %2, i64 16
  store ptr %.16.val, ptr %5, align 8
  %magicptr.i.i = ptrtoint ptr %.16.val to i64
  switch i64 %magicptr.i.i, label %6 [
    i64 -8192, label %_ZN4llvm6WeakVHC2ERKS0_.exit
    i64 -4096, label %_ZN4llvm6WeakVHC2ERKS0_.exit
  ]

6:                                                ; preds = %3
  %7 = and i64 %.0.val, -8
  %8 = inttoptr i64 %7 to ptr
  call void @_ZN4llvm15ValueHandleBase20AddToExistingUseListEPPS0_(ptr noundef nonnull align 8 dereferenceable(24) %2, ptr noundef %8) #21
  br label %_ZN4llvm6WeakVHC2ERKS0_.exit

9:                                                ; preds = %1
  %10 = tail call noundef ptr @_ZN4llvm4Type9getInt8TyERNS_11LLVMContextE(ptr noundef nonnull align 8 dereferenceable(8) %0) #21
  %11 = tail call noundef ptr @_ZN4llvm11PoisonValue3getEPNS_4TypeE(ptr noundef %10) #21
  store i64 4, ptr %2, align 8
  %12 = getelementptr inbounds nuw i8, ptr %2, i64 8
  store ptr null, ptr %12, align 8
  %13 = getelementptr inbounds nuw i8, ptr %2, i64 16
  store ptr %11, ptr %13, align 8
  %magicptr.i.i3 = ptrtoint ptr %11 to i64
  switch i64 %magicptr.i.i3, label %14 [
    i64 0, label %_ZN4llvm6WeakVHC2ERKS0_.exit
    i64 -4096, label %_ZN4llvm6WeakVHC2ERKS0_.exit
    i64 -8192, label %_ZN4llvm6WeakVHC2ERKS0_.exit
  ]

14:                                               ; preds = %9
  call void @_ZN4llvm15ValueHandleBase12AddToUseListEv(ptr noundef nonnull align 8 dereferenceable(24) %2) #21
  br label %_ZN4llvm6WeakVHC2ERKS0_.exit

_ZN4llvm6WeakVHC2ERKS0_.exit:                     ; preds = %3, %14, %9, %9, %9, %6, %3
  %15 = getelementptr inbounds nuw i8, ptr %2, i64 16
  %16 = load ptr, ptr %15, align 8
  %magicptr.i.i4 = ptrtoint ptr %16 to i64
  switch i64 %magicptr.i.i4, label %17 [
    i64 0, label %_ZN4llvm6WeakVHD2Ev.exit
    i64 -4096, label %_ZN4llvm6WeakVHD2Ev.exit
    i64 -8192, label %_ZN4llvm6WeakVHD2Ev.exit
  ]

17:                                               ; preds = %_ZN4llvm6WeakVHC2ERKS0_.exit
  call void @_ZN4llvm15ValueHandleBase17RemoveFromUseListEv(ptr noundef nonnull align 8 dereferenceable(24) %2) #21
  br label %_ZN4llvm6WeakVHD2Ev.exit

_ZN4llvm6WeakVHD2Ev.exit:                         ; preds = %_ZN4llvm6WeakVHC2ERKS0_.exit, %_ZN4llvm6WeakVHC2ERKS0_.exit, %_ZN4llvm6WeakVHC2ERKS0_.exit, %17
  ret ptr %16
}